target datalayout = "e-m:e-p270:32:32-p271:32:32-p272:64:64-i64:64-i128:128-f80:128-n8:16:32:64-S128"
target triple = "x86_64-pc-linux-gnu"

%struct.H5C_t = type { i8, ptr, ptr, i32, ptr, i64, i64, ptr, i8, ptr, i8, i8, i32, i64, [6 x i32], [6 x i64], i64, [6 x i64], i64, [6 x i64], [65536 x ptr], i32, i64, ptr, ptr, i64, ptr, ptr, i8, i8, i32, i64, [6 x i32], [6 x i64], ptr, i32, ptr, i8, i32, i32, i64, ptr, ptr, i32, i64, ptr, ptr, i32, i64, ptr, ptr, i8, i8, i64, i8, i8, i8, i8, i8, i8, %struct.H5C_auto_size_ctl_t, i32, [10 x i8], [11 x i32], i32, i32, i32, [10 x %struct.H5C_cache_entry_t], i64, i64, %struct.H5C_cache_image_ctl_t, i8, i8, i8, i8, i64, i64, i64, i64, i64, i64, i64, i32, ptr, ptr, i8, i8, [32 x i8] }
%struct.H5C_auto_size_ctl_t = type { i32, ptr, i8, i64, double, i64, i64, i64, i32, double, double, i8, i64, i32, double, double, i32, double, double, i8, i64, i32, i8, double }
%struct.H5C_cache_entry_t = type { ptr, i64, i64, ptr, i8, ptr, i8, i8, i8, i8, i32, i8, i8, i8, i8, i8, i32, ptr, i32, i32, i32, i32, i32, i8, i8, ptr, ptr, ptr, ptr, ptr, ptr, i8, i32, i8, i64, ptr, i64, i64, i32, i8, i32, i32, i8, ptr, ptr, ptr }
%struct.H5C_cache_image_ctl_t = type { i32, i8, i8, i32, i32 }
%struct.H5C_log_info_t = type { i8, i8, ptr, ptr }
%struct.H5C_log_class_t = type { ptr, ptr, ptr, ptr, ptr, ptr, ptr, ptr, ptr, ptr, ptr, ptr, ptr, ptr, ptr, ptr, ptr, ptr, ptr, ptr, ptr, ptr, ptr, ptr, ptr, ptr }

@.str = private unnamed_addr constant [100 x i8] c"generated/home/dtcxzyw/WorkSpace/Projects/compilers/llvm-opt-benchmark/bench/hdf5/hdf5/src/H5Clog.c\00", align 1
@H5E_CACHE_g = external global i64, align 8
@H5E_LOGGING_g = external global i64, align 8
@.str.6 = private unnamed_addr constant [20 x i8] c"logging not enabled\00", align 1
@__func__.H5C_stop_logging = private unnamed_addr constant [17 x i8] c"H5C_stop_logging\00", align 1
@.str.11 = private unnamed_addr constant [24 x i8] c"logging not in progress\00", align 1
@.str.12 = private unnamed_addr constant [36 x i8] c"log-specific write stop call failed\00", align 1
@.str.13 = private unnamed_addr constant [30 x i8] c"log-specific stop call failed\00", align 1

; Function Attrs: nounwind uwtable
define i32 @H5C_stop_logging(ptr noundef %0) #0 {
  %2 = alloca ptr, align 8
  %3 = alloca i32, align 4
  %4 = alloca i8, align 1
  store ptr %0, ptr %2, align 8
  store i32 0, ptr %3, align 4
  store i8 0, ptr %4, align 1
  %5 = load ptr, ptr %2, align 8
  %6 = getelementptr inbounds %struct.H5C_t, ptr %5, i32 0, i32 1
  %7 = load ptr, ptr %6, align 8
  %8 = getelementptr inbounds %struct.H5C_log_info_t, ptr %7, i32 0, i32 0
  %9 = load i8, ptr %8, align 8
  %10 = trunc i8 %9 to i1
  %11 = zext i1 %10 to i32
  %12 = icmp eq i32 0, %11
  br i1 %12, label %13, label %28

13:                                               ; preds = %1
  br label %14

14:                                               ; preds = %13
  br label %15

15:                                               ; preds = %14
  br label %16

16:                                               ; preds = %15
  %17 = load i64, ptr @H5E_CACHE_g, align 8
  %18 = load i64, ptr @H5E_LOGGING_g, align 8
  %19 = call i32 (ptr, ptr, i32, i64, i64, ptr, ...) @H5E_printf_stack(ptr noundef @.str, ptr noundef @__func__.H5C_stop_logging, i32 noundef 224, i64 noundef %17, i64 noundef %18, ptr noundef @.str.6)
  br label %20

20:                                               ; preds = %16
  store i8 1, ptr %4, align 1
  %21 = load i8, ptr %4, align 1
  %22 = trunc i8 %21 to i1
  %23 = zext i1 %22 to i8
  store i8 %23, ptr %4, align 1
  br label %24

24:                                               ; preds = %20
  br label %25

25:                                               ; preds = %24
  store i32 -1, ptr %3, align 4
  br label %135

26:                                               ; No predecessors!
  br label %27

27:                                               ; preds = %26
  br label %28

28:                                               ; preds = %27, %1
  %29 = load ptr, ptr %2, align 8
  %30 = getelementptr inbounds %struct.H5C_t, ptr %29, i32 0, i32 1
  %31 = load ptr, ptr %30, align 8
  %32 = getelementptr inbounds %struct.H5C_log_info_t, ptr %31, i32 0, i32 1
  %33 = load i8, ptr %32, align 1
  %34 = trunc i8 %33 to i1
  %35 = zext i1 %34 to i32
  %36 = icmp eq i32 0, %35
  br i1 %36, label %37, label %52

37:                                               ; preds = %28
  br label %38

38:                                               ; preds = %37
  br label %39

39:                                               ; preds = %38
  br label %40

40:                                               ; preds = %39
  %41 = load i64, ptr @H5E_CACHE_g, align 8
  %42 = load i64, ptr @H5E_LOGGING_g, align 8
  %43 = call i32 (ptr, ptr, i32, i64, i64, ptr, ...) @H5E_printf_stack(ptr noundef @.str, ptr noundef @__func__.H5C_stop_logging, i32 noundef 226, i64 noundef %41, i64 noundef %42, ptr noundef @.str.11)
  br label %44

44:                                               ; preds = %40
  store i8 1, ptr %4, align 1
  %45 = load i8, ptr %4, align 1
  %46 = trunc i8 %45 to i1
  %47 = zext i1 %46 to i8
  store i8 %47, ptr %4, align 1
  br label %48

48:                                               ; preds = %44
  br label %49

49:                                               ; preds = %48
  store i32 -1, ptr %3, align 4
  br label %135

50:                                               ; No predecessors!
  br label %51

51:                                               ; preds = %50
  br label %52

52:                                               ; preds = %51, %28
  %53 = load ptr, ptr %2, align 8
  %54 = getelementptr inbounds %struct.H5C_t, ptr %53, i32 0, i32 1
  %55 = load ptr, ptr %54, align 8
  %56 = getelementptr inbounds %struct.H5C_log_info_t, ptr %55, i32 0, i32 2
  %57 = load ptr, ptr %56, align 8
  %58 = getelementptr inbounds %struct.H5C_log_class_t, ptr %57, i32 0, i32 5
  %59 = load ptr, ptr %58, align 8
  %60 = icmp ne ptr %59, null
  br i1 %60, label %61, label %92

61:                                               ; preds = %52
  %62 = load ptr, ptr %2, align 8
  %63 = getelementptr inbounds %struct.H5C_t, ptr %62, i32 0, i32 1
  %64 = load ptr, ptr %63, align 8
  %65 = getelementptr inbounds %struct.H5C_log_info_t, ptr %64, i32 0, i32 2
  %66 = load ptr, ptr %65, align 8
  %67 = getelementptr inbounds %struct.H5C_log_class_t, ptr %66, i32 0, i32 5
  %68 = load ptr, ptr %67, align 8
  %69 = load ptr, ptr %2, align 8
  %70 = getelementptr inbounds %struct.H5C_t, ptr %69, i32 0, i32 1
  %71 = load ptr, ptr %70, align 8
  %72 = getelementptr inbounds %struct.H5C_log_info_t, ptr %71, i32 0, i32 3
  %73 = load ptr, ptr %72, align 8
  %74 = call i32 %68(ptr noundef %73)
  %75 = icmp slt i32 %74, 0
  br i1 %75, label %76, label %91

76:                                               ; preds = %61
  br label %77

77:                                               ; preds = %76
  br label %78

78:                                               ; preds = %77
  br label %79

79:                                               ; preds = %78
  %80 = load i64, ptr @H5E_CACHE_g, align 8
  %81 = load i64, ptr @H5E_LOGGING_g, align 8
  %82 = call i32 (ptr, ptr, i32, i64, i64, ptr, ...) @H5E_printf_stack(ptr noundef @.str, ptr noundef @__func__.H5C_stop_logging, i32 noundef 231, i64 noundef %80, i64 noundef %81, ptr noundef @.str.12)
  br label %83

83:                                               ; preds = %79
  store i8 1, ptr %4, align 1
  %84 = load i8, ptr %4, align 1
  %85 = trunc i8 %84 to i1
  %86 = zext i1 %85 to i8
  store i8 %86, ptr %4, align 1
  br label %87

87:                                               ; preds = %83
  br label %88

88:                                               ; preds = %87
  store i32 -1, ptr %3, align 4
  br label %135

89:                                               ; No predecessors!
  br label %90

90:                                               ; preds = %89
  br label %91

91:                                               ; preds = %90, %61
  br label %92

92:                                               ; preds = %91, %52
  %93 = load ptr, ptr %2, align 8
  %94 = getelementptr inbounds %struct.H5C_t, ptr %93, i32 0, i32 1
  %95 = load ptr, ptr %94, align 8
  %96 = getelementptr inbounds %struct.H5C_log_info_t, ptr %95, i32 0, i32 2
  %97 = load ptr, ptr %96, align 8
  %98 = getelementptr inbounds %struct.H5C_log_class_t, ptr %97, i32 0, i32 3
  %99 = load ptr, ptr %98, align 8
  %100 = icmp ne ptr %99, null
  br i1 %100, label %101, label %130

101:                                              ; preds = %92
  %102 = load ptr, ptr %2, align 8
  %103 = getelementptr inbounds %struct.H5C_t, ptr %102, i32 0, i32 1
  %104 = load ptr, ptr %103, align 8
  %105 = getelementptr inbounds %struct.H5C_log_info_t, ptr %104, i32 0, i32 2
  %106 = load ptr, ptr %105, align 8
  %107 = getelementptr inbounds %struct.H5C_log_class_t, ptr %106, i32 0, i32 3
  %108 = load ptr, ptr %107, align 8
  %109 = load ptr, ptr %2, align 8
  %110 = getelementptr inbounds %struct.H5C_t, ptr %109, i32 0, i32 1
  %111 = load ptr, ptr %110, align 8
  %112 = call i32 %108(ptr noundef %111)
  %113 = icmp slt i32 %112, 0
  br i1 %113, label %114, label %129

114:                                              ; preds = %101
  br label %115

115:                                              ; preds = %114
  br label %116

116:                                              ; preds = %115
  br label %117

117:                                              ; preds = %116
  %118 = load i64, ptr @H5E_CACHE_g, align 8
  %119 = load i64, ptr @H5E_LOGGING_g, align 8
  %120 = call i32 (ptr, ptr, i32, i64, i64, ptr, ...) @H5E_printf_stack(ptr noundef @.str, ptr noundef @__func__.H5C_stop_logging, i32 noundef 236, i64 noundef %118, i64 noundef %119, ptr noundef @.str.13)
  br label %121

121:                                              ; preds = %117
  store i8 1, ptr %4, align 1
  %122 = load i8, ptr %4, align 1
  %123 = trunc i8 %122 to i1
  %124 = zext i1 %123 to i8
  store i8 %124, ptr %4, align 1
  br label %125

125:                                              ; preds = %121
  br label %126

126:                                              ; preds = %125
  store i32 -1, ptr %3, align 4
  br label %135

127:                                              ; No predecessors!
  br label %128

128:                                              ; preds = %127
  br label %129

129:                                              ; preds = %128, %101
  br label %130

130:                                              ; preds = %129, %92
  %131 = load ptr, ptr %2, align 8
  %132 = getelementptr inbounds %struct.H5C_t, ptr %131, i32 0, i32 1
  %133 = load ptr, ptr %132, align 8
  %134 = getelementptr inbounds %struct.H5C_log_info_t, ptr %133, i32 0, i32 1
  store i8 0, ptr %134, align 1
  br label %135

135:                                              ; preds = %130, %126, %88, %49, %25
  %136 = load i32, ptr %3, align 4
  ret i32 %136
}