; Function Attrs: nounwind uwtable
define range(i32 -1, 1) i32 @H5C_stop_logging(ptr nocapture noundef readonly %0) local_unnamed_addr #0 {
  %2 = getelementptr inbounds i8, ptr %0, i64 8
  %3 = load ptr, ptr %2, align 8
  %4 = load i8, ptr %3, align 8
  %5 = and i8 %4, 1
  %6 = icmp eq i8 %5, 0
  br i1 %6, label %7, label %11

7:                                                ; preds = %1
  %8 = load i64, ptr @H5E_CACHE_g, align 8
  %9 = load i64, ptr @H5E_LOGGING_g, align 8
  %10 = tail call i32 (ptr, ptr, i32, i64, i64, ptr, ...) @H5E_printf_stack(ptr noundef nonnull @.str, ptr noundef nonnull @__func__.H5C_stop_logging, i32 noundef 224, i64 noundef %8, i64 noundef %9, ptr noundef nonnull @.str.6) #3
  br label %49

11:                                               ; preds = %1
  %12 = getelementptr inbounds i8, ptr %3, i64 1
  %13 = load i8, ptr %12, align 1
  %14 = and i8 %13, 1
  %15 = icmp eq i8 %14, 0
  br i1 %15, label %16, label %20

16:                                               ; preds = %11
  %17 = load i64, ptr @H5E_CACHE_g, align 8
  %18 = load i64, ptr @H5E_LOGGING_g, align 8
  %19 = tail call i32 (ptr, ptr, i32, i64, i64, ptr, ...) @H5E_printf_stack(ptr noundef nonnull @.str, ptr noundef nonnull @__func__.H5C_stop_logging, i32 noundef 226, i64 noundef %17, i64 noundef %18, ptr noundef nonnull @.str.11) #3
  br label %49

20:                                               ; preds = %11
  %21 = getelementptr inbounds i8, ptr %3, i64 8
  %22 = load ptr, ptr %21, align 8
  %23 = getelementptr inbounds i8, ptr %22, i64 40
  %24 = load ptr, ptr %23, align 8
  %.not = icmp eq ptr %24, null
  br i1 %.not, label %34, label %25

25:                                               ; preds = %20
  %26 = getelementptr inbounds i8, ptr %3, i64 16
  %27 = load ptr, ptr %26, align 8
  %28 = tail call i32 %24(ptr noundef %27) #3
  %29 = icmp slt i32 %28, 0
  br i1 %29, label %30, label %._crit_edge

._crit_edge:                                      ; preds = %25
  %.pre = load ptr, ptr %2, align 8
  %.phi.trans.insert = getelementptr inbounds i8, ptr %.pre, i64 8
  %.pre16 = load ptr, ptr %.phi.trans.insert, align 8
  br label %34

30:                                               ; preds = %25
  %31 = load i64, ptr @H5E_CACHE_g, align 8
  %32 = load i64, ptr @H5E_LOGGING_g, align 8
  %33 = tail call i32 (ptr, ptr, i32, i64, i64, ptr, ...) @H5E_printf_stack(ptr noundef nonnull @.str, ptr noundef nonnull @__func__.H5C_stop_logging, i32 noundef 231, i64 noundef %31, i64 noundef %32, ptr noundef nonnull @.str.12) #3
  br label %49

34:                                               ; preds = %._crit_edge, %20
  %35 = phi ptr [ %.pre16, %._crit_edge ], [ %22, %20 ]
  %36 = phi ptr [ %.pre, %._crit_edge ], [ %3, %20 ]
  %37 = getelementptr inbounds i8, ptr %35, i64 24
  %38 = load ptr, ptr %37, align 8
  %.not15 = icmp eq ptr %38, null
  br i1 %.not15, label %46, label %39

39:                                               ; preds = %34
  %40 = tail call i32 %38(ptr noundef nonnull %36) #3
  %41 = icmp slt i32 %40, 0
  br i1 %41, label %42, label %._crit_edge17

._crit_edge17:                                    ; preds = %39
  %.pre18 = load ptr, ptr %2, align 8
  br label %46

42:                                               ; preds = %39
  %43 = load i64, ptr @H5E_CACHE_g, align 8
  %44 = load i64, ptr @H5E_LOGGING_g, align 8
  %45 = tail call i32 (ptr, ptr, i32, i64, i64, ptr, ...) @H5E_printf_stack(ptr noundef nonnull @.str, ptr noundef nonnull @__func__.H5C_stop_logging, i32 noundef 236, i64 noundef %43, i64 noundef %44, ptr noundef nonnull @.str.13) #3
  br label %49

46:                                               ; preds = %._crit_edge17, %34
  %47 = phi ptr [ %.pre18, %._crit_edge17 ], [ %36, %34 ]
  %48 = getelementptr inbounds i8, ptr %47, i64 1
  store i8 0, ptr %48, align 1
  br label %49

49:                                               ; preds = %46, %42, %30, %16, %7
  %.0 = phi i32 [ -1, %7 ], [ -1, %16 ], [ -1, %30 ], [ -1, %42 ], [ 0, %46 ]
  ret i32 %.0
}